; Function Attrs: mustprogress uwtable
define void @_ZN13ATapDataModel10updateDataEP7_GArray(ptr noundef nonnull align 8 dereferenceable(120) %0, ptr noundef %1) local_unnamed_addr #0 align 2 {
  %3 = getelementptr inbounds i8, ptr %0, i64 59
  %4 = load i8, ptr %3, align 1
  %5 = and i8 %4, 1
  %.not = icmp eq i8 %5, 0
  br i1 %.not, label %6, label %12

6:                                                ; preds = %2
  tail call void @_ZN18QAbstractItemModel15beginResetModelEv(ptr noundef nonnull align 8 dereferenceable(16) %0)
  %7 = getelementptr inbounds i8, ptr %0, i64 24
  store ptr %1, ptr %7, align 8
  tail call void @_ZN18QAbstractItemModel13endResetModelEv(ptr noundef nonnull align 8 dereferenceable(16) %0)
  %8 = getelementptr inbounds i8, ptr %0, i64 16
  %9 = load i32, ptr %8, align 8
  %10 = icmp eq i32 %9, 1
  br i1 %10, label %11, label %12

11:                                               ; preds = %6
  tail call void @_ZN21ConversationDataModel12doDataUpdateEv(ptr noundef nonnull align 8 dereferenceable(120) %0)
  br label %12

12:                                               ; preds = %2, %11, %6
  ret void
}